target datalayout = "e-m:e-p270:32:32-p271:32:32-p272:64:64-i64:64-i128:128-f80:128-n8:16:32:64-S128"
target triple = "x86_64-pc-linux-gnu"

%struct.Vec_Int_t_ = type { i32, i32, ptr }

@.str.37 = private unnamed_addr constant [4 x i8] c" %d\00", align 1
@.str.71 = private unnamed_addr constant [25 x i8] c"Vector has %d entries: {\00", align 1
@.str.72 = private unnamed_addr constant [4 x i8] c" }\0A\00", align 1

; Function Attrs: inlinehint nounwind uwtable
define internal i32 @Vec_IntEntry(ptr noundef %0, i32 noundef %1) #2 {
  %3 = alloca ptr, align 8
  %4 = alloca i32, align 4
  store ptr %0, ptr %3, align 8, !tbaa !43
  store i32 %1, ptr %4, align 4, !tbaa !10
  %5 = load ptr, ptr %3, align 8, !tbaa !43
  %6 = getelementptr inbounds nuw %struct.Vec_Int_t_, ptr %5, i32 0, i32 2
  %7 = load ptr, ptr %6, align 8, !tbaa !212
  %8 = load i32, ptr %4, align 4, !tbaa !10
  %9 = sext i32 %8 to i64
  %10 = getelementptr inbounds i32, ptr %7, i64 %9
  %11 = load i32, ptr %10, align 4, !tbaa !10
  ret i32 %11
}

; Function Attrs: inlinehint nounwind uwtable
define internal i32 @Vec_IntSize(ptr noundef %0) #2 {
  %2 = alloca ptr, align 8
  store ptr %0, ptr %2, align 8, !tbaa !43
  %3 = load ptr, ptr %2, align 8, !tbaa !43
  %4 = getelementptr inbounds nuw %struct.Vec_Int_t_, ptr %3, i32 0, i32 1
  %5 = load i32, ptr %4, align 4, !tbaa !210
  ret i32 %5
}

; Function Attrs: inlinehint nounwind uwtable
define internal void @Vec_IntPrint(ptr noundef %0) #2 {
  %2 = alloca ptr, align 8
  %3 = alloca i32, align 4
  %4 = alloca i32, align 4
  store ptr %0, ptr %2, align 8, !tbaa !43
  call void @llvm.lifetime.start.p0(i64 4, ptr %3) #14
  call void @llvm.lifetime.start.p0(i64 4, ptr %4) #14
  %5 = load ptr, ptr %2, align 8, !tbaa !43
  %6 = call i32 @Vec_IntSize(ptr noundef %5)
  %7 = call i32 (ptr, ...) @printf(ptr noundef @.str.71, i32 noundef %6)
  store i32 0, ptr %3, align 4, !tbaa !10
  br label %8

8:                                                ; preds = %22, %1
  %9 = load i32, ptr %3, align 4, !tbaa !10
  %10 = load ptr, ptr %2, align 8, !tbaa !43
  %11 = call i32 @Vec_IntSize(ptr noundef %10)
  %12 = icmp slt i32 %9, %11
  br i1 %12, label %13, label %17

13:                                               ; preds = %8
  %14 = load ptr, ptr %2, align 8, !tbaa !43
  %15 = load i32, ptr %3, align 4, !tbaa !10
  %16 = call i32 @Vec_IntEntry(ptr noundef %14, i32 noundef %15)
  store i32 %16, ptr %4, align 4, !tbaa !10
  br label %17

17:                                               ; preds = %13, %8
  %18 = phi i1 [ false, %8 ], [ true, %13 ]
  br i1 %18, label %19, label %25

19:                                               ; preds = %17
  %20 = load i32, ptr %4, align 4, !tbaa !10
  %21 = call i32 (ptr, ...) @printf(ptr noundef @.str.37, i32 noundef %20)
  br label %22

22:                                               ; preds = %19
  %23 = load i32, ptr %3, align 4, !tbaa !10
  %24 = add nsw i32 %23, 1
  store i32 %24, ptr %3, align 4, !tbaa !10
  br label %8, !llvm.loop !331

25:                                               ; preds = %17
  %26 = call i32 (ptr, ...) @printf(ptr noundef @.str.72)
  call void @llvm.lifetime.end.p0(i64 4, ptr %4) #14
  call void @llvm.lifetime.end.p0(i64 4, ptr %3) #14
  ret void
}