; Function Attrs: inlinehint nofree nounwind uwtable
define internal fastcc void @Vec_IntPrint(ptr noundef readonly captures(none) %0) unnamed_addr #7 {
  %2 = getelementptr i8, ptr %0, i64 4
  %.val7 = load i32, ptr %2, align 4, !tbaa !40
  %3 = tail call i32 (ptr, ...) @printf(ptr noundef nonnull dereferenceable(1) @.str.71, i32 noundef %.val7)
  %.val68 = load i32, ptr %2, align 4, !tbaa !40
  %4 = icmp sgt i32 %.val68, 0
  br i1 %4, label %.lr.ph, label %.critedge

.lr.ph:                                           ; preds = %1
  %5 = getelementptr i8, ptr %0, i64 8
  br label %6

6:                                                ; preds = %.lr.ph, %6
  %indvars.iv = phi i64 [ 0, %.lr.ph ], [ %indvars.iv.next, %6 ]
  %.val = load ptr, ptr %5, align 8, !tbaa !44
  %7 = getelementptr inbounds nuw i32, ptr %.val, i64 %indvars.iv
  %8 = load i32, ptr %7, align 4, !tbaa !7
  %9 = tail call i32 (ptr, ...) @printf(ptr noundef nonnull dereferenceable(1) @.str.37, i32 noundef %8)
  %indvars.iv.next = add nuw nsw i64 %indvars.iv, 1
  %.val6 = load i32, ptr %2, align 4, !tbaa !40
  %10 = sext i32 %.val6 to i64
  %11 = icmp slt i64 %indvars.iv.next, %10
  br i1 %11, label %6, label %.critedge, !llvm.loop !323

.critedge:                                        ; preds = %6, %1
  %puts = tail call i32 @puts(ptr nonnull dereferenceable(1) @str.14)
  ret void
}